; Function Attrs: mustprogress uwtable
define hidden noundef ptr @_ZN24fixed_bit_vector_manager8allocateERK16fixed_bit_vector(ptr noundef nonnull align 8 dereferenceable(540) %0, ptr noundef nonnull readonly align 4 captures(none) dereferenceable(4) %1) local_unnamed_addr #4 align 2 {
  %3 = getelementptr inbounds nuw i8, ptr %0, i64 524
  %4 = load i32, ptr %3, align 4, !tbaa !17
  %5 = icmp eq i32 %4, 0
  br i1 %5, label %6, label %8

6:                                                ; preds = %2
  %7 = getelementptr inbounds nuw i8, ptr %0, i64 536
  br label %_ZN24fixed_bit_vector_manager8allocateEv.exit

8:                                                ; preds = %2
  %9 = zext i32 %4 to i64
  %10 = tail call noundef ptr @_ZN22small_object_allocator8allocateEm(ptr noundef nonnull align 8 dereferenceable(540) %0, i64 noundef %9)
  %.pre = load i32, ptr %3, align 4, !tbaa !17
  %11 = zext i32 %.pre to i64
  br label %_ZN24fixed_bit_vector_manager8allocateEv.exit

_ZN24fixed_bit_vector_manager8allocateEv.exit:    ; preds = %6, %8
  %12 = phi i64 [ 0, %6 ], [ %11, %8 ]
  %.0.i = phi ptr [ %7, %6 ], [ %10, %8 ]
  tail call void @llvm.memcpy.p0.p0.i64(ptr nonnull align 4 dereferenceable(4) %.0.i, ptr nonnull readonly align 4 dereferenceable(4) %1, i64 %12, i1 false)
  ret ptr %.0.i
}